; Function Attrs: mustprogress nofree norecurse nosync nounwind willreturn memory(none) uwtable
define dso_local { i64, i64 } @i128_sub(i64 %0, i64 %1, i64 %2, i64 %3) local_unnamed_addr #1 {
  %5 = sub i64 %0, %2
  %6 = icmp ugt i64 %3, %1
  %7 = sext i1 %6 to i64
  %spec.select = add i64 %5, %7
  %8 = sub i64 %1, %3
  %.fca.0.insert = insertvalue { i64, i64 } poison, i64 %spec.select, 0
  %.fca.1.insert = insertvalue { i64, i64 } %.fca.0.insert, i64 %8, 1
  ret { i64, i64 } %.fca.1.insert
}